target datalayout = "e-m:e-p270:32:32-p271:32:32-p272:64:64-i64:64-i128:128-f80:128-n8:16:32:64-S128"
target triple = "x86_64-pc-linux-gnu"

%"struct.Luau::BytecodeBuilder::ConstantKey" = type { i32, i64, i64 }
%"struct.Luau::BytecodeBuilder::Constant" = type { i32, %union.anon.82 }
%union.anon.82 = type { double, [8 x i8] }

@__const._ZN4Luau15BytecodeBuilder14addConstantNilEv.c = private unnamed_addr constant { i32, [4 x i8], { i8, [15 x i8] } } { i32 0, [4 x i8] undef, { i8, [15 x i8] } { i8 0, [15 x i8] undef } }, align 8

; Function Attrs: mustprogress uwtable
define dso_local noundef i32 @_ZN4Luau15BytecodeBuilder14addConstantNilEv(ptr noundef nonnull align 8 dereferenceable(840) %0) #2 align 2 {
  %2 = alloca ptr, align 8
  %3 = alloca %"struct.Luau::BytecodeBuilder::Constant", align 8
  %4 = alloca %"struct.Luau::BytecodeBuilder::ConstantKey", align 8
  store ptr %0, ptr %2, align 8, !tbaa !35
  %5 = load ptr, ptr %2, align 8
  call void @llvm.lifetime.start.p0(i64 24, ptr %3) #19
  call void @llvm.memcpy.p0.p0.i64(ptr align 8 %3, ptr align 8 @__const._ZN4Luau15BytecodeBuilder14addConstantNilEv.c, i64 24, i1 false)
  call void @llvm.lifetime.start.p0(i64 24, ptr %4) #19
  %6 = getelementptr inbounds nuw %"struct.Luau::BytecodeBuilder::ConstantKey", ptr %4, i32 0, i32 0
  store i32 0, ptr %6, align 8, !tbaa !25
  %7 = getelementptr inbounds nuw %"struct.Luau::BytecodeBuilder::ConstantKey", ptr %4, i32 0, i32 1
  store i64 0, ptr %7, align 8, !tbaa !29
  %8 = getelementptr inbounds nuw %"struct.Luau::BytecodeBuilder::ConstantKey", ptr %4, i32 0, i32 2
  store i64 0, ptr %8, align 8, !tbaa !139
  %9 = call noundef i32 @_ZN4Luau15BytecodeBuilder11addConstantERKNS0_11ConstantKeyERKNS0_8ConstantE(ptr noundef nonnull align 8 dereferenceable(840) %5, ptr noundef nonnull align 8 dereferenceable(24) %4, ptr noundef nonnull align 8 dereferenceable(24) %3)
  call void @llvm.lifetime.end.p0(i64 24, ptr %4) #19
  call void @llvm.lifetime.end.p0(i64 24, ptr %3) #19
  ret i32 %9
}