; Function Attrs: mustprogress uwtable
define dso_local noundef i32 @_ZN4Luau15BytecodeBuilder14addConstantNilEv(ptr noundef nonnull align 8 dereferenceable(840) %0) local_unnamed_addr #3 align 2 {
  %2 = alloca %"struct.Luau::BytecodeBuilder::ConstantKey", align 8
  call void @llvm.lifetime.start.p0(i64 24, ptr nonnull %2) #33
  store i32 0, ptr %2, align 8, !tbaa !15
  %3 = getelementptr inbounds nuw i8, ptr %2, i64 8
  call void @llvm.memset.p0.i64(ptr noundef nonnull align 8 dereferenceable(16) %3, i8 0, i64 16, i1 false)
  %4 = call noundef i32 @_ZN4Luau15BytecodeBuilder11addConstantERKNS0_11ConstantKeyERKNS0_8ConstantE(ptr noundef nonnull align 8 dereferenceable(840) %0, ptr noundef nonnull align 8 dereferenceable(24) %2, ptr noundef nonnull align 8 dereferenceable(24) @__const._ZN4Luau15BytecodeBuilder14addConstantNilEv.c)
  call void @llvm.lifetime.end.p0(i64 24, ptr nonnull %2) #33
  ret i32 %4
}